; Function Attrs: mustprogress nofree norecurse nosync nounwind memory(argmem: readwrite) uwtable
define hidden noundef ptr @_ZN6google8protobuf8internal12ParseContext28ReadSizeAndPushLimitAndDepthEPKcPi(ptr noundef nonnull align 8 captures(none) dereferenceable(120) %0, ptr noundef %1, ptr noundef writeonly captures(none) %2) local_unnamed_addr #9 align 2 personality ptr @__gxx_personality_v0 {
  %4 = load i8, ptr %1, align 1, !tbaa !25
  %5 = zext i8 %4 to i32
  %6 = icmp sgt i8 %4, -1
  br i1 %6, label %7, label %.critedge.i.i

7:                                                ; preds = %3
  %8 = getelementptr inbounds nuw i8, ptr %1, i64 1
  br label %33

9:                                                ; preds = %.critedge.i.i
  %indvars.iv.next.i.i = add nuw nsw i64 %indvars.iv.i.i, 1
  %exitcond.not.i.i = icmp eq i64 %indvars.iv.next.i.i, 4
  br i1 %exitcond.not.i.i, label %22, label %.critedge.i.i, !llvm.loop !29

.critedge.i.i:                                    ; preds = %3, %9
  %indvars.iv.i.i = phi i64 [ %indvars.iv.next.i.i, %9 ], [ 1, %3 ]
  %.02234.i.i = phi i32 [ %17, %9 ], [ %5, %3 ]
  %10 = getelementptr inbounds nuw i8, ptr %1, i64 %indvars.iv.i.i
  %11 = load i8, ptr %10, align 1, !tbaa !25
  %12 = zext i8 %11 to i32
  %13 = add nsw i32 %12, -1
  %14 = trunc i64 %indvars.iv.i.i to i32
  %15 = mul i32 %14, 7
  %16 = shl nsw i32 %13, %15
  %17 = add i32 %16, %.02234.i.i
  %18 = icmp slt i8 %11, 0
  br i1 %18, label %9, label %19, !prof !27

19:                                               ; preds = %.critedge.i.i
  %20 = getelementptr inbounds nuw i8, ptr %1, i64 %indvars.iv.i.i
  %21 = getelementptr inbounds nuw i8, ptr %20, i64 1
  br label %33

22:                                               ; preds = %9
  %23 = getelementptr inbounds nuw i8, ptr %1, i64 4
  %24 = load i8, ptr %23, align 1, !tbaa !25
  %25 = icmp ugt i8 %24, 7
  br i1 %25, label %_ZN6google8protobuf8internal8ReadSizeEPPKc.exit, label %26, !prof !27

26:                                               ; preds = %22
  %27 = zext nneg i8 %24 to i32
  %28 = shl nuw nsw i32 %27, 28
  %29 = add i32 %17, -268435456
  %30 = add i32 %29, %28
  %31 = icmp ugt i32 %30, 2147483631
  %32 = getelementptr inbounds nuw i8, ptr %1, i64 5
  br i1 %31, label %_ZN6google8protobuf8internal8ReadSizeEPPKc.exit, label %33, !prof !27

_ZN6google8protobuf8internal8ReadSizeEPPKc.exit:  ; preds = %26, %22
  store i32 0, ptr %2, align 4, !tbaa !40
  br label %50

33:                                               ; preds = %7, %19, %26
  %storemerge.i.ph = phi ptr [ %32, %26 ], [ %21, %19 ], [ %8, %7 ]
  %.0.i.ph = phi i32 [ %30, %26 ], [ %17, %19 ], [ %5, %7 ]
  %34 = getelementptr inbounds nuw i8, ptr %0, i64 8
  %35 = load ptr, ptr %34, align 8, !tbaa !13
  %36 = ptrtoint ptr %storemerge.i.ph to i64
  %37 = ptrtoint ptr %35 to i64
  %38 = sub i64 %36, %37
  %39 = trunc i64 %38 to i32
  %40 = add nsw i32 %.0.i.ph, %39
  %.sroa.speculated.i = tail call i32 @llvm.smin.i32(i32 %40, i32 0)
  %41 = sext i32 %.sroa.speculated.i to i64
  %42 = getelementptr inbounds i8, ptr %35, i64 %41
  store ptr %42, ptr %0, align 8, !tbaa !22
  %43 = getelementptr inbounds nuw i8, ptr %0, i64 28
  %44 = load i32, ptr %43, align 4, !tbaa !24
  store i32 %40, ptr %43, align 4, !tbaa !24
  %45 = sub nsw i32 %44, %40
  store i32 %45, ptr %2, align 4, !tbaa !40
  %46 = getelementptr inbounds nuw i8, ptr %0, i64 88
  %47 = load i32, ptr %46, align 8, !tbaa !42
  %48 = add nsw i32 %47, -1
  store i32 %48, ptr %46, align 8, !tbaa !42
  %49 = icmp slt i32 %47, 1
  %spec.select = select i1 %49, ptr null, ptr %storemerge.i.ph
  br label %50

50:                                               ; preds = %33, %_ZN6google8protobuf8internal8ReadSizeEPPKc.exit
  %.0 = phi ptr [ null, %_ZN6google8protobuf8internal8ReadSizeEPPKc.exit ], [ %spec.select, %33 ]
  ret ptr %.0
}